target datalayout = "e-m:e-p270:32:32-p271:32:32-p272:64:64-i64:64-i128:128-f80:128-n8:16:32:64-S128"
target triple = "x86_64-pc-linux-gnu"

@.str.14 = private unnamed_addr constant [5 x i8] c"Text\00", align 1
@.str.15 = private unnamed_addr constant [13 x i8] c"TextDisabled\00", align 1
@.str.16 = private unnamed_addr constant [9 x i8] c"WindowBg\00", align 1
@.str.17 = private unnamed_addr constant [8 x i8] c"ChildBg\00", align 1
@.str.18 = private unnamed_addr constant [8 x i8] c"PopupBg\00", align 1
@.str.19 = private unnamed_addr constant [7 x i8] c"Border\00", align 1
@.str.20 = private unnamed_addr constant [13 x i8] c"BorderShadow\00", align 1
@.str.21 = private unnamed_addr constant [8 x i8] c"FrameBg\00", align 1
@.str.22 = private unnamed_addr constant [15 x i8] c"FrameBgHovered\00", align 1
@.str.23 = private unnamed_addr constant [14 x i8] c"FrameBgActive\00", align 1
@.str.24 = private unnamed_addr constant [8 x i8] c"TitleBg\00", align 1
@.str.25 = private unnamed_addr constant [14 x i8] c"TitleBgActive\00", align 1
@.str.26 = private unnamed_addr constant [17 x i8] c"TitleBgCollapsed\00", align 1
@.str.27 = private unnamed_addr constant [10 x i8] c"MenuBarBg\00", align 1
@.str.28 = private unnamed_addr constant [12 x i8] c"ScrollbarBg\00", align 1
@.str.29 = private unnamed_addr constant [14 x i8] c"ScrollbarGrab\00", align 1
@.str.30 = private unnamed_addr constant [21 x i8] c"ScrollbarGrabHovered\00", align 1
@.str.31 = private unnamed_addr constant [20 x i8] c"ScrollbarGrabActive\00", align 1
@.str.32 = private unnamed_addr constant [10 x i8] c"CheckMark\00", align 1
@.str.33 = private unnamed_addr constant [11 x i8] c"SliderGrab\00", align 1
@.str.34 = private unnamed_addr constant [17 x i8] c"SliderGrabActive\00", align 1
@.str.35 = private unnamed_addr constant [7 x i8] c"Button\00", align 1
@.str.36 = private unnamed_addr constant [14 x i8] c"ButtonHovered\00", align 1
@.str.37 = private unnamed_addr constant [13 x i8] c"ButtonActive\00", align 1
@.str.38 = private unnamed_addr constant [7 x i8] c"Header\00", align 1
@.str.39 = private unnamed_addr constant [14 x i8] c"HeaderHovered\00", align 1
@.str.40 = private unnamed_addr constant [13 x i8] c"HeaderActive\00", align 1
@.str.41 = private unnamed_addr constant [10 x i8] c"Separator\00", align 1
@.str.42 = private unnamed_addr constant [17 x i8] c"SeparatorHovered\00", align 1
@.str.43 = private unnamed_addr constant [16 x i8] c"SeparatorActive\00", align 1
@.str.44 = private unnamed_addr constant [11 x i8] c"ResizeGrip\00", align 1
@.str.45 = private unnamed_addr constant [18 x i8] c"ResizeGripHovered\00", align 1
@.str.46 = private unnamed_addr constant [17 x i8] c"ResizeGripActive\00", align 1
@.str.47 = private unnamed_addr constant [11 x i8] c"TabHovered\00", align 1
@.str.48 = private unnamed_addr constant [4 x i8] c"Tab\00", align 1
@.str.49 = private unnamed_addr constant [12 x i8] c"TabSelected\00", align 1
@.str.50 = private unnamed_addr constant [20 x i8] c"TabSelectedOverline\00", align 1
@.str.51 = private unnamed_addr constant [10 x i8] c"TabDimmed\00", align 1
@.str.52 = private unnamed_addr constant [18 x i8] c"TabDimmedSelected\00", align 1
@.str.53 = private unnamed_addr constant [26 x i8] c"TabDimmedSelectedOverline\00", align 1
@.str.54 = private unnamed_addr constant [10 x i8] c"PlotLines\00", align 1
@.str.55 = private unnamed_addr constant [17 x i8] c"PlotLinesHovered\00", align 1
@.str.56 = private unnamed_addr constant [14 x i8] c"PlotHistogram\00", align 1
@.str.57 = private unnamed_addr constant [21 x i8] c"PlotHistogramHovered\00", align 1
@.str.58 = private unnamed_addr constant [14 x i8] c"TableHeaderBg\00", align 1
@.str.59 = private unnamed_addr constant [18 x i8] c"TableBorderStrong\00", align 1
@.str.60 = private unnamed_addr constant [17 x i8] c"TableBorderLight\00", align 1
@.str.61 = private unnamed_addr constant [11 x i8] c"TableRowBg\00", align 1
@.str.62 = private unnamed_addr constant [14 x i8] c"TableRowBgAlt\00", align 1
@.str.63 = private unnamed_addr constant [9 x i8] c"TextLink\00", align 1
@.str.64 = private unnamed_addr constant [15 x i8] c"TextSelectedBg\00", align 1
@.str.65 = private unnamed_addr constant [15 x i8] c"DragDropTarget\00", align 1
@.str.66 = private unnamed_addr constant [13 x i8] c"NavHighlight\00", align 1
@.str.67 = private unnamed_addr constant [22 x i8] c"NavWindowingHighlight\00", align 1
@.str.68 = private unnamed_addr constant [18 x i8] c"NavWindowingDimBg\00", align 1
@.str.69 = private unnamed_addr constant [17 x i8] c"ModalWindowDimBg\00", align 1
@.str.70 = private unnamed_addr constant [8 x i8] c"Unknown\00", align 1

; Function Attrs: mustprogress nounwind uwtable
define dso_local noundef ptr @_ZN5ImGui17GetStyleColorNameEi(i32 noundef %0) #1 {
  %2 = alloca ptr, align 8
  %3 = alloca i32, align 4
  store i32 %0, ptr %3, align 4, !tbaa !117
  %4 = load i32, ptr %3, align 4, !tbaa !117
  switch i32 %4, label %61 [
    i32 0, label %5
    i32 1, label %6
    i32 2, label %7
    i32 3, label %8
    i32 4, label %9
    i32 5, label %10
    i32 6, label %11
    i32 7, label %12
    i32 8, label %13
    i32 9, label %14
    i32 10, label %15
    i32 11, label %16
    i32 12, label %17
    i32 13, label %18
    i32 14, label %19
    i32 15, label %20
    i32 16, label %21
    i32 17, label %22
    i32 18, label %23
    i32 19, label %24
    i32 20, label %25
    i32 21, label %26
    i32 22, label %27
    i32 23, label %28
    i32 24, label %29
    i32 25, label %30
    i32 26, label %31
    i32 27, label %32
    i32 28, label %33
    i32 29, label %34
    i32 30, label %35
    i32 31, label %36
    i32 32, label %37
    i32 33, label %38
    i32 34, label %39
    i32 35, label %40
    i32 36, label %41
    i32 37, label %42
    i32 38, label %43
    i32 39, label %44
    i32 40, label %45
    i32 41, label %46
    i32 42, label %47
    i32 43, label %48
    i32 44, label %49
    i32 45, label %50
    i32 46, label %51
    i32 47, label %52
    i32 48, label %53
    i32 49, label %54
    i32 50, label %55
    i32 51, label %56
    i32 52, label %57
    i32 53, label %58
    i32 54, label %59
    i32 55, label %60
  ]

5:                                                ; preds = %1
  store ptr @.str.14, ptr %2, align 8
  br label %62

6:                                                ; preds = %1
  store ptr @.str.15, ptr %2, align 8
  br label %62

7:                                                ; preds = %1
  store ptr @.str.16, ptr %2, align 8
  br label %62

8:                                                ; preds = %1
  store ptr @.str.17, ptr %2, align 8
  br label %62

9:                                                ; preds = %1
  store ptr @.str.18, ptr %2, align 8
  br label %62

10:                                               ; preds = %1
  store ptr @.str.19, ptr %2, align 8
  br label %62

11:                                               ; preds = %1
  store ptr @.str.20, ptr %2, align 8
  br label %62

12:                                               ; preds = %1
  store ptr @.str.21, ptr %2, align 8
  br label %62

13:                                               ; preds = %1
  store ptr @.str.22, ptr %2, align 8
  br label %62

14:                                               ; preds = %1
  store ptr @.str.23, ptr %2, align 8
  br label %62

15:                                               ; preds = %1
  store ptr @.str.24, ptr %2, align 8
  br label %62

16:                                               ; preds = %1
  store ptr @.str.25, ptr %2, align 8
  br label %62

17:                                               ; preds = %1
  store ptr @.str.26, ptr %2, align 8
  br label %62

18:                                               ; preds = %1
  store ptr @.str.27, ptr %2, align 8
  br label %62

19:                                               ; preds = %1
  store ptr @.str.28, ptr %2, align 8
  br label %62

20:                                               ; preds = %1
  store ptr @.str.29, ptr %2, align 8
  br label %62

21:                                               ; preds = %1
  store ptr @.str.30, ptr %2, align 8
  br label %62

22:                                               ; preds = %1
  store ptr @.str.31, ptr %2, align 8
  br label %62

23:                                               ; preds = %1
  store ptr @.str.32, ptr %2, align 8
  br label %62

24:                                               ; preds = %1
  store ptr @.str.33, ptr %2, align 8
  br label %62

25:                                               ; preds = %1
  store ptr @.str.34, ptr %2, align 8
  br label %62

26:                                               ; preds = %1
  store ptr @.str.35, ptr %2, align 8
  br label %62

27:                                               ; preds = %1
  store ptr @.str.36, ptr %2, align 8
  br label %62

28:                                               ; preds = %1
  store ptr @.str.37, ptr %2, align 8
  br label %62

29:                                               ; preds = %1
  store ptr @.str.38, ptr %2, align 8
  br label %62

30:                                               ; preds = %1
  store ptr @.str.39, ptr %2, align 8
  br label %62

31:                                               ; preds = %1
  store ptr @.str.40, ptr %2, align 8
  br label %62

32:                                               ; preds = %1
  store ptr @.str.41, ptr %2, align 8
  br label %62

33:                                               ; preds = %1
  store ptr @.str.42, ptr %2, align 8
  br label %62

34:                                               ; preds = %1
  store ptr @.str.43, ptr %2, align 8
  br label %62

35:                                               ; preds = %1
  store ptr @.str.44, ptr %2, align 8
  br label %62

36:                                               ; preds = %1
  store ptr @.str.45, ptr %2, align 8
  br label %62

37:                                               ; preds = %1
  store ptr @.str.46, ptr %2, align 8
  br label %62

38:                                               ; preds = %1
  store ptr @.str.47, ptr %2, align 8
  br label %62

39:                                               ; preds = %1
  store ptr @.str.48, ptr %2, align 8
  br label %62

40:                                               ; preds = %1
  store ptr @.str.49, ptr %2, align 8
  br label %62

41:                                               ; preds = %1
  store ptr @.str.50, ptr %2, align 8
  br label %62

42:                                               ; preds = %1
  store ptr @.str.51, ptr %2, align 8
  br label %62

43:                                               ; preds = %1
  store ptr @.str.52, ptr %2, align 8
  br label %62

44:                                               ; preds = %1
  store ptr @.str.53, ptr %2, align 8
  br label %62

45:                                               ; preds = %1
  store ptr @.str.54, ptr %2, align 8
  br label %62

46:                                               ; preds = %1
  store ptr @.str.55, ptr %2, align 8
  br label %62

47:                                               ; preds = %1
  store ptr @.str.56, ptr %2, align 8
  br label %62

48:                                               ; preds = %1
  store ptr @.str.57, ptr %2, align 8
  br label %62

49:                                               ; preds = %1
  store ptr @.str.58, ptr %2, align 8
  br label %62

50:                                               ; preds = %1
  store ptr @.str.59, ptr %2, align 8
  br label %62

51:                                               ; preds = %1
  store ptr @.str.60, ptr %2, align 8
  br label %62

52:                                               ; preds = %1
  store ptr @.str.61, ptr %2, align 8
  br label %62

53:                                               ; preds = %1
  store ptr @.str.62, ptr %2, align 8
  br label %62

54:                                               ; preds = %1
  store ptr @.str.63, ptr %2, align 8
  br label %62

55:                                               ; preds = %1
  store ptr @.str.64, ptr %2, align 8
  br label %62

56:                                               ; preds = %1
  store ptr @.str.65, ptr %2, align 8
  br label %62

57:                                               ; preds = %1
  store ptr @.str.66, ptr %2, align 8
  br label %62

58:                                               ; preds = %1
  store ptr @.str.67, ptr %2, align 8
  br label %62

59:                                               ; preds = %1
  store ptr @.str.68, ptr %2, align 8
  br label %62

60:                                               ; preds = %1
  store ptr @.str.69, ptr %2, align 8
  br label %62

61:                                               ; preds = %1
  store ptr @.str.70, ptr %2, align 8
  br label %62

62:                                               ; preds = %61, %60, %59, %58, %57, %56, %55, %54, %53, %52, %51, %50, %49, %48, %47, %46, %45, %44, %43, %42, %41, %40, %39, %38, %37, %36, %35, %34, %33, %32, %31, %30, %29, %28, %27, %26, %25, %24, %23, %22, %21, %20, %19, %18, %17, %16, %15, %14, %13, %12, %11, %10, %9, %8, %7, %6, %5
  %63 = load ptr, ptr %2, align 8
  ret ptr %63
}